target datalayout = "e-m:e-p270:32:32-p271:32:32-p272:64:64-i64:64-i128:128-f80:128-n8:16:32:64-S128"
target triple = "x86_64-pc-linux-gnu"

%"class.gmx::AnalysisDataProxy" = type <{ %"class.gmx::AbstractAnalysisData", %"class.gmx::IAnalysisDataModule", ptr, i32, i32, i8, [7 x i8] }>
%"class.gmx::AbstractAnalysisData" = type { ptr, %"class.std::unique_ptr" }
%"class.std::unique_ptr" = type { %"struct.std::__uniq_ptr_data" }
%"struct.std::__uniq_ptr_data" = type { %"class.std::__uniq_ptr_impl" }
%"class.std::__uniq_ptr_impl" = type { %"class.std::tuple" }
%"class.std::tuple" = type { %"struct.std::_Tuple_impl" }
%"struct.std::_Tuple_impl" = type { %"struct.std::_Head_base.4" }
%"struct.std::_Head_base.4" = type { ptr }
%"class.gmx::IAnalysisDataModule" = type { ptr }
%class.anon.7 = type { i8 }

@.str.2 = private unnamed_addr constant [132 x i8] c"generated/home/dtcxzyw/WorkSpace/Projects/compilers/llvm-opt-benchmark/bench/gromacs/gromacs/src/gromacs/analysisdata/dataproxy.cpp\00", align 1
@.str.5 = private unnamed_addr constant [17 x i8] c"data == &source_\00", align 1
@.str.6 = private unnamed_addr constant [21 x i8] c"Source data mismatch\00", align 1
@"__PRETTY_FUNCTION__._ZZN3gmx17AnalysisDataProxy11dataStartedEPNS_20AbstractAnalysisDataEENK3$_0clEv" = private unnamed_addr constant [104 x i8] c"auto gmx::AnalysisDataProxy::dataStarted(AbstractAnalysisData *)::(anonymous class)::operator()() const\00", align 1

; Function Attrs: mustprogress uwtable
define internal void @"_ZZN3gmx17AnalysisDataProxy11dataStartedEPNS_20AbstractAnalysisDataEENK3$_0clEv"(ptr noundef nonnull align 1 dereferenceable(1) %0) #1 align 2 {
  %2 = alloca ptr, align 8
  store ptr %0, ptr %2, align 8
  call void @_ZN3gmx8internal13assertHandlerEPKcS2_S2_S2_i(ptr noundef @.str.5, ptr noundef @.str.6, ptr noundef @"__PRETTY_FUNCTION__._ZZN3gmx17AnalysisDataProxy11dataStartedEPNS_20AbstractAnalysisDataEENK3$_0clEv", ptr noundef @.str.2, i32 noundef 92) #12
  unreachable
}

; Function Attrs: mustprogress uwtable
define void @_ZN3gmx17AnalysisDataProxy11dataStartedEPNS_20AbstractAnalysisDataE(ptr noundef nonnull align 8 dereferenceable(41) %0, ptr noundef %1) unnamed_addr #1 align 2 {
  %3 = alloca ptr, align 8
  %4 = alloca ptr, align 8
  %5 = alloca %class.anon.7, align 1
  %6 = alloca i32, align 4
  store ptr %0, ptr %3, align 8
  store ptr %1, ptr %4, align 8
  %7 = load ptr, ptr %3, align 8
  %8 = load ptr, ptr %4, align 8
  %9 = getelementptr inbounds %"class.gmx::AnalysisDataProxy", ptr %7, i32 0, i32 2
  %10 = load ptr, ptr %9, align 8
  %11 = icmp eq ptr %8, %10
  br i1 %11, label %12, label %13

12:                                               ; preds = %2
  br label %14

13:                                               ; preds = %2
  call void @"_ZZN3gmx17AnalysisDataProxy11dataStartedEPNS_20AbstractAnalysisDataEENK3$_0clEv"(ptr noundef nonnull align 1 dereferenceable(1) %5)
  br label %14

14:                                               ; preds = %13, %12
  %15 = load ptr, ptr %4, align 8
  %16 = call noundef i32 @_ZNK3gmx20AbstractAnalysisData12dataSetCountEv(ptr noundef nonnull align 8 dereferenceable(16) %15)
  call void @_ZN3gmx20AbstractAnalysisData15setDataSetCountEi(ptr noundef nonnull align 8 dereferenceable(16) %7, i32 noundef %16)
  store i32 0, ptr %6, align 4
  br label %17

17:                                               ; preds = %26, %14
  %18 = load i32, ptr %6, align 4
  %19 = load ptr, ptr %4, align 8
  %20 = call noundef i32 @_ZNK3gmx20AbstractAnalysisData12dataSetCountEv(ptr noundef nonnull align 8 dereferenceable(16) %19)
  %21 = icmp slt i32 %18, %20
  br i1 %21, label %22, label %29

22:                                               ; preds = %17
  %23 = load i32, ptr %6, align 4
  %24 = getelementptr inbounds %"class.gmx::AnalysisDataProxy", ptr %7, i32 0, i32 4
  %25 = load i32, ptr %24, align 4
  call void @_ZN3gmx20AbstractAnalysisData14setColumnCountEii(ptr noundef nonnull align 8 dereferenceable(16) %7, i32 noundef %23, i32 noundef %25)
  br label %26

26:                                               ; preds = %22
  %27 = load i32, ptr %6, align 4
  %28 = add nsw i32 %27, 1
  store i32 %28, ptr %6, align 4
  br label %17, !llvm.loop !5

29:                                               ; preds = %17
  %30 = call noundef nonnull align 8 dereferenceable(8) ptr @_ZN3gmx20AbstractAnalysisData13moduleManagerEv(ptr noundef nonnull align 8 dereferenceable(16) %7)
  call void @_ZN3gmx25AnalysisDataModuleManager15notifyDataStartEPNS_20AbstractAnalysisDataE(ptr noundef nonnull align 8 dereferenceable(8) %30, ptr noundef %7)
  ret void
}