; Function Attrs: mustprogress uwtable
define void @_ZN3gmx17AnalysisDataProxy11dataStartedEPNS_20AbstractAnalysisDataE(ptr noundef nonnull align 8 dereferenceable(41) %0, ptr noundef %1) unnamed_addr #1 align 2 {
  %3 = getelementptr inbounds i8, ptr %0, i64 24
  %4 = load ptr, ptr %3, align 8
  %5 = icmp eq ptr %4, %1
  br i1 %5, label %7, label %6

6:                                                ; preds = %2
  tail call void @_ZN3gmx8internal13assertHandlerEPKcS2_S2_S2_i(ptr noundef nonnull @.str.5, ptr noundef nonnull @.str.6, ptr noundef nonnull @"__PRETTY_FUNCTION__._ZZN3gmx17AnalysisDataProxy11dataStartedEPNS_20AbstractAnalysisDataEENK3$_0clEv", ptr noundef nonnull @.str.2, i32 noundef 92) #12
  unreachable

7:                                                ; preds = %2
  %8 = tail call noundef i32 @_ZNK3gmx20AbstractAnalysisData12dataSetCountEv(ptr noundef nonnull align 8 dereferenceable(16) %1)
  tail call void @_ZN3gmx20AbstractAnalysisData15setDataSetCountEi(ptr noundef nonnull align 8 dereferenceable(16) %0, i32 noundef %8)
  %9 = tail call noundef i32 @_ZNK3gmx20AbstractAnalysisData12dataSetCountEv(ptr noundef nonnull align 8 dereferenceable(16) %1)
  %10 = icmp sgt i32 %9, 0
  br i1 %10, label %.lr.ph, label %._crit_edge

.lr.ph:                                           ; preds = %7
  %11 = getelementptr inbounds i8, ptr %0, i64 36
  br label %12

12:                                               ; preds = %.lr.ph, %12
  %.06 = phi i32 [ 0, %.lr.ph ], [ %14, %12 ]
  %13 = load i32, ptr %11, align 4
  tail call void @_ZN3gmx20AbstractAnalysisData14setColumnCountEii(ptr noundef nonnull align 8 dereferenceable(16) %0, i32 noundef %.06, i32 noundef %13)
  %14 = add nuw nsw i32 %.06, 1
  %15 = tail call noundef i32 @_ZNK3gmx20AbstractAnalysisData12dataSetCountEv(ptr noundef nonnull align 8 dereferenceable(16) %1)
  %16 = icmp slt i32 %14, %15
  br i1 %16, label %12, label %._crit_edge, !llvm.loop !5

._crit_edge:                                      ; preds = %12, %7
  %17 = tail call noundef nonnull align 8 dereferenceable(8) ptr @_ZN3gmx20AbstractAnalysisData13moduleManagerEv(ptr noundef nonnull align 8 dereferenceable(16) %0)
  tail call void @_ZN3gmx25AnalysisDataModuleManager15notifyDataStartEPNS_20AbstractAnalysisDataE(ptr noundef nonnull align 8 dereferenceable(8) %17, ptr noundef nonnull %0)
  ret void
}